; Function Attrs: inlinehint nofree nounwind memory(read, inaccessiblemem: none) uwtable
define internal fastcc ptr @pmix_cmd_line_get_param(ptr noundef readonly captures(none) %0) unnamed_addr #9 {
  %.01 = load ptr, ptr getelementptr inbounds nuw (i8, ptr @results, i64 360), align 8, !tbaa !111
  %.not2 = icmp eq ptr %.01, getelementptr inbounds nuw (i8, ptr @results, i64 240)
  br i1 %.not2, label %._crit_edge, label %.lr.ph

.lr.ph:                                           ; preds = %1, %6
  %.03 = phi ptr [ %.0, %6 ], [ %.01, %1 ]
  %2 = getelementptr inbounds nuw i8, ptr %.03, i64 144
  %3 = load ptr, ptr %2, align 8, !tbaa !112
  %4 = tail call i32 @strcmp(ptr noundef nonnull dereferenceable(1) %3, ptr noundef nonnull dereferenceable(1) %0) #21
  %5 = icmp eq i32 %4, 0
  br i1 %5, label %._crit_edge, label %6

6:                                                ; preds = %.lr.ph
  %7 = getelementptr inbounds nuw i8, ptr %.03, i64 120
  %.0 = load ptr, ptr %7, align 8, !tbaa !111
  %.not = icmp eq ptr %.0, getelementptr inbounds nuw (i8, ptr @results, i64 240)
  br i1 %.not, label %._crit_edge, label %.lr.ph, !llvm.loop !113

._crit_edge:                                      ; preds = %.lr.ph, %6, %1
  %.08 = phi ptr [ null, %1 ], [ null, %6 ], [ %.03, %.lr.ph ]
  ret ptr %.08
}